target datalayout = "e-m:e-p270:32:32-p271:32:32-p272:64:64-i64:64-i128:128-f80:128-n8:16:32:64-S128"
target triple = "x86_64-pc-linux-gnu"

%struct.CodedBitstreamContext = type { ptr, ptr, ptr, ptr, i32, i32, i32, ptr, ptr, ptr, ptr, i64 }
%struct.CodedBitstreamAV1Context = type { ptr, ptr, ptr, i32, ptr, ptr, i64, i32, i32, i32, i32, i32, i32, i32, i32, i32, i32, i32, i32, i32, i32, i32, i32, [8 x i32], [8 x i32], [8 x %struct.AV1ReferenceFrameState], i32, i32, [8 x i8], [2 x i8], [8 x [8 x i8]], [8 x [8 x i16]] }
%struct.AV1ReferenceFrameState = type { i32, i32, i32, i32, i32, i32, i32, i32, i32, i32, i32, i32, [8 x i32], [8 x i8], [2 x i8], [8 x [8 x i8]], [8 x [8 x i16]] }
%struct.AV1RawSequenceHeader = type { i8, i8, i8, i8, i8, i8, i8, %struct.AV1RawTimingInfo, %struct.AV1RawDecoderModelInfo, [32 x i16], [32 x i8], [32 x i8], [32 x i8], [32 x i32], [32 x i32], [32 x i8], [32 x i8], [32 x i8], i8, i8, i16, i16, i8, i8, i8, i8, i8, i8, i8, i8, i8, i8, i8, i8, i8, i8, i8, i8, i8, i8, i8, i8, i8, %struct.AV1RawColorConfig, i8 }
%struct.AV1RawTimingInfo = type { i32, i32, i8, i32 }
%struct.AV1RawDecoderModelInfo = type { i8, i32, i8, i8 }
%struct.AV1RawColorConfig = type { i8, i8, i8, i8, i8, i8, i8, i8, i8, i8, i8, i8 }
%struct.AV1RawFrameHeader = type { i8, i8, i32, i32, i8, i8, i8, i8, i8, i8, i8, i32, i8, i8, i8, [32 x i32], i8, i16, i16, i8, i8, i8, i16, i16, [7 x i8], i8, i8, [8 x i8], i8, i8, i8, [7 x i8], [7 x i32], i8, i8, i8, i8, i8, i8, i8, i8, i8, [64 x i8], [64 x i8], [64 x i8], [64 x i8], i16, i8, i16, i16, i8, i8, i8, i8, i8, i8, i8, i8, i8, i8, i8, i8, i8, i8, i8, [8 x [8 x i8]], [8 x [8 x i16]], i8, i8, i8, i8, i8, [4 x i8], i8, i8, i8, [8 x i8], [8 x i8], [2 x i8], [2 x i8], i8, i8, [8 x i8], [8 x i8], [8 x i8], [8 x i8], [3 x i8], i8, i8, i8, i8, i8, i8, i8, [8 x i8], [8 x i8], [8 x i8], [8 x [6 x i32]], %struct.AV1RawFilmGrainParams }
%struct.AV1RawFilmGrainParams = type { i8, i16, i8, i8, i8, [14 x i8], [14 x i8], i8, i8, [10 x i8], [10 x i8], i8, [10 x i8], [10 x i8], i8, i8, [24 x i8], [25 x i8], [25 x i8], i8, i8, i8, i8, i16, i8, i8, i16, i8, i8 }

@.str.144 = private unnamed_addr constant [13 x i8] c"use_superres\00", align 1
@.str.145 = private unnamed_addr constant [12 x i8] c"coded_denom\00", align 1
@.str.317 = private unnamed_addr constant [59 x i8] c"%s does not match inferred value: %ld, but should be %ld.\0A\00", align 1

; Function Attrs: nounwind uwtable
define internal i32 @cbs_av1_write_superres_params(ptr noundef %0, ptr noundef %1, ptr noundef %2) #0 {
  %4 = alloca i32, align 4
  %5 = alloca ptr, align 8
  %6 = alloca ptr, align 8
  %7 = alloca ptr, align 8
  %8 = alloca ptr, align 8
  %9 = alloca ptr, align 8
  %10 = alloca i32, align 4
  %11 = alloca i32, align 4
  %12 = alloca i32, align 4
  store ptr %0, ptr %5, align 8, !tbaa !4
  store ptr %1, ptr %6, align 8, !tbaa !71
  store ptr %2, ptr %7, align 8, !tbaa !159
  call void @llvm.lifetime.start.p0(i64 8, ptr %8) #8
  %13 = load ptr, ptr %5, align 8, !tbaa !4
  %14 = getelementptr inbounds nuw %struct.CodedBitstreamContext, ptr %13, i32 0, i32 2
  %15 = load ptr, ptr %14, align 8, !tbaa !36
  store ptr %15, ptr %8, align 8, !tbaa !37
  call void @llvm.lifetime.start.p0(i64 8, ptr %9) #8
  %16 = load ptr, ptr %8, align 8, !tbaa !37
  %17 = getelementptr inbounds nuw %struct.CodedBitstreamAV1Context, ptr %16, i32 0, i32 1
  %18 = load ptr, ptr %17, align 8, !tbaa !67
  store ptr %18, ptr %9, align 8, !tbaa !58
  call void @llvm.lifetime.start.p0(i64 4, ptr %10) #8
  call void @llvm.lifetime.start.p0(i64 4, ptr %11) #8
  %19 = load ptr, ptr %9, align 8, !tbaa !58
  %20 = getelementptr inbounds nuw %struct.AV1RawSequenceHeader, ptr %19, i32 0, i32 40
  %21 = load i8, ptr %20, align 4, !tbaa !155
  %22 = icmp ne i8 %21, 0
  br i1 %22, label %23, label %42

23:                                               ; preds = %3
  br label %24

24:                                               ; preds = %23
  br label %25

25:                                               ; preds = %24
  %26 = load ptr, ptr %5, align 8, !tbaa !4
  %27 = load ptr, ptr %6, align 8, !tbaa !71
  %28 = load ptr, ptr %7, align 8, !tbaa !159
  %29 = getelementptr inbounds nuw %struct.AV1RawFrameHeader, ptr %28, i32 0, i32 19
  %30 = load i8, ptr %29, align 2, !tbaa !394
  %31 = zext i8 %30 to i32
  %32 = call i32 @ff_cbs_write_simple_unsigned(ptr noundef %26, ptr noundef %27, i32 noundef 1, ptr noundef @.str.144, i32 noundef %31)
  store i32 %32, ptr %11, align 4, !tbaa !11
  %33 = load i32, ptr %11, align 4, !tbaa !11
  %34 = icmp slt i32 %33, 0
  br i1 %34, label %35, label %37

35:                                               ; preds = %25
  %36 = load i32, ptr %11, align 4, !tbaa !11
  store i32 %36, ptr %4, align 4
  store i32 1, ptr %12, align 4
  br label %107

37:                                               ; preds = %25
  br label %38

38:                                               ; preds = %37
  br label %39

39:                                               ; preds = %38
  br label %40

40:                                               ; preds = %39
  br label %41

41:                                               ; preds = %40
  br label %60

42:                                               ; preds = %3
  br label %43

43:                                               ; preds = %42
  %44 = load ptr, ptr %7, align 8, !tbaa !159
  %45 = getelementptr inbounds nuw %struct.AV1RawFrameHeader, ptr %44, i32 0, i32 19
  %46 = load i8, ptr %45, align 2, !tbaa !394
  %47 = zext i8 %46 to i32
  %48 = icmp ne i32 %47, 0
  br i1 %48, label %49, label %57

49:                                               ; preds = %43
  %50 = load ptr, ptr %5, align 8, !tbaa !4
  %51 = getelementptr inbounds nuw %struct.CodedBitstreamContext, ptr %50, i32 0, i32 0
  %52 = load ptr, ptr %51, align 8, !tbaa !26
  %53 = load ptr, ptr %7, align 8, !tbaa !159
  %54 = getelementptr inbounds nuw %struct.AV1RawFrameHeader, ptr %53, i32 0, i32 19
  %55 = load i8, ptr %54, align 2, !tbaa !394
  %56 = zext i8 %55 to i64
  call void (ptr, i32, ptr, ...) @av_log(ptr noundef %52, i32 noundef 16, ptr noundef @.str.317, ptr noundef @.str.144, i64 noundef %56, i64 noundef 0)
  store i32 -1094995529, ptr %4, align 4
  store i32 1, ptr %12, align 4
  br label %107

57:                                               ; preds = %43
  br label %58

58:                                               ; preds = %57
  br label %59

59:                                               ; preds = %58
  br label %60

60:                                               ; preds = %59, %41
  %61 = load ptr, ptr %7, align 8, !tbaa !159
  %62 = getelementptr inbounds nuw %struct.AV1RawFrameHeader, ptr %61, i32 0, i32 19
  %63 = load i8, ptr %62, align 2, !tbaa !394
  %64 = icmp ne i8 %63, 0
  br i1 %64, label %65, label %89

65:                                               ; preds = %60
  br label %66

66:                                               ; preds = %65
  br label %67

67:                                               ; preds = %66
  %68 = load ptr, ptr %5, align 8, !tbaa !4
  %69 = load ptr, ptr %6, align 8, !tbaa !71
  %70 = load ptr, ptr %7, align 8, !tbaa !159
  %71 = getelementptr inbounds nuw %struct.AV1RawFrameHeader, ptr %70, i32 0, i32 20
  %72 = load i8, ptr %71, align 1, !tbaa !395
  %73 = zext i8 %72 to i32
  %74 = call i32 @ff_cbs_write_simple_unsigned(ptr noundef %68, ptr noundef %69, i32 noundef 3, ptr noundef @.str.145, i32 noundef %73)
  store i32 %74, ptr %11, align 4, !tbaa !11
  %75 = load i32, ptr %11, align 4, !tbaa !11
  %76 = icmp slt i32 %75, 0
  br i1 %76, label %77, label %79

77:                                               ; preds = %67
  %78 = load i32, ptr %11, align 4, !tbaa !11
  store i32 %78, ptr %4, align 4
  store i32 1, ptr %12, align 4
  br label %107

79:                                               ; preds = %67
  br label %80

80:                                               ; preds = %79
  br label %81

81:                                               ; preds = %80
  br label %82

82:                                               ; preds = %81
  br label %83

83:                                               ; preds = %82
  %84 = load ptr, ptr %7, align 8, !tbaa !159
  %85 = getelementptr inbounds nuw %struct.AV1RawFrameHeader, ptr %84, i32 0, i32 20
  %86 = load i8, ptr %85, align 1, !tbaa !395
  %87 = zext i8 %86 to i32
  %88 = add nsw i32 %87, 9
  store i32 %88, ptr %10, align 4, !tbaa !11
  br label %90

89:                                               ; preds = %60
  store i32 8, ptr %10, align 4, !tbaa !11
  br label %90

90:                                               ; preds = %89, %83
  %91 = load ptr, ptr %8, align 8, !tbaa !37
  %92 = getelementptr inbounds nuw %struct.CodedBitstreamAV1Context, ptr %91, i32 0, i32 12
  %93 = load i32, ptr %92, align 4, !tbaa !241
  %94 = load ptr, ptr %8, align 8, !tbaa !37
  %95 = getelementptr inbounds nuw %struct.CodedBitstreamAV1Context, ptr %94, i32 0, i32 14
  store i32 %93, ptr %95, align 4, !tbaa !239
  %96 = load ptr, ptr %8, align 8, !tbaa !37
  %97 = getelementptr inbounds nuw %struct.CodedBitstreamAV1Context, ptr %96, i32 0, i32 14
  %98 = load i32, ptr %97, align 4, !tbaa !239
  %99 = mul nsw i32 %98, 8
  %100 = load i32, ptr %10, align 4, !tbaa !11
  %101 = sdiv i32 %100, 2
  %102 = add nsw i32 %99, %101
  %103 = load i32, ptr %10, align 4, !tbaa !11
  %104 = sdiv i32 %102, %103
  %105 = load ptr, ptr %8, align 8, !tbaa !37
  %106 = getelementptr inbounds nuw %struct.CodedBitstreamAV1Context, ptr %105, i32 0, i32 12
  store i32 %104, ptr %106, align 4, !tbaa !241
  store i32 0, ptr %4, align 4
  store i32 1, ptr %12, align 4
  br label %107

107:                                              ; preds = %90, %77, %49, %35
  call void @llvm.lifetime.end.p0(i64 4, ptr %11) #8
  call void @llvm.lifetime.end.p0(i64 4, ptr %10) #8
  call void @llvm.lifetime.end.p0(i64 8, ptr %9) #8
  call void @llvm.lifetime.end.p0(i64 8, ptr %8) #8
  %108 = load i32, ptr %4, align 4
  ret i32 %108
}