; Function Attrs: nounwind uwtable
define internal fastcc range(i32 -2147483648, 1) i32 @cbs_av1_write_superres_params(ptr noundef %0, ptr noundef %1, ptr noundef readonly captures(none) %2) unnamed_addr #0 {
  %4 = getelementptr inbounds nuw i8, ptr %0, i64 16
  %5 = load ptr, ptr %4, align 8, !tbaa !33
  %6 = getelementptr inbounds nuw i8, ptr %5, i64 8
  %7 = load ptr, ptr %6, align 8, !tbaa !60
  %8 = getelementptr inbounds nuw i8, ptr %7, i64 572
  %9 = load i8, ptr %8, align 4, !tbaa !123
  %.not = icmp eq i8 %9, 0
  %10 = getelementptr inbounds nuw i8, ptr %2, i64 162
  %11 = load i8, ptr %10, align 2, !tbaa !315
  br i1 %.not, label %16, label %12

12:                                               ; preds = %3
  %13 = zext i8 %11 to i32
  %14 = tail call i32 @ff_cbs_write_simple_unsigned(ptr noundef nonnull %0, ptr noundef %1, i32 noundef 1, ptr noundef nonnull @.str.144, i32 noundef %13) #8
  %15 = icmp slt i32 %14, 0
  br i1 %15, label %39, label %20

16:                                               ; preds = %3
  %.not27 = icmp eq i8 %11, 0
  br i1 %.not27, label %.thread, label %17

17:                                               ; preds = %16
  %18 = load ptr, ptr %0, align 8, !tbaa !19
  %19 = zext i8 %11 to i64
  tail call void (ptr, i32, ptr, ...) @av_log(ptr noundef %18, i32 noundef 16, ptr noundef nonnull @.str.317, ptr noundef nonnull @.str.144, i64 noundef %19, i64 noundef 0) #8
  br label %39

20:                                               ; preds = %12
  %.pre = load i8, ptr %10, align 2, !tbaa !315
  %21 = icmp eq i8 %.pre, 0
  br i1 %21, label %.thread, label %22

22:                                               ; preds = %20
  %23 = getelementptr inbounds nuw i8, ptr %2, i64 163
  %24 = load i8, ptr %23, align 1, !tbaa !316
  %25 = zext i8 %24 to i32
  %26 = tail call i32 @ff_cbs_write_simple_unsigned(ptr noundef nonnull %0, ptr noundef %1, i32 noundef 3, ptr noundef nonnull @.str.145, i32 noundef %25) #8
  %27 = icmp slt i32 %26, 0
  br i1 %27, label %39, label %28

28:                                               ; preds = %22
  %29 = load i8, ptr %23, align 1, !tbaa !316
  %30 = zext i8 %29 to i32
  %31 = add nuw nsw i32 %30, 9
  br label %.thread

.thread:                                          ; preds = %16, %20, %28
  %.0 = phi i32 [ %31, %28 ], [ 8, %20 ], [ 8, %16 ]
  %32 = getelementptr inbounds nuw i8, ptr %5, i64 76
  %33 = load i32, ptr %32, align 4, !tbaa !231
  %34 = getelementptr inbounds nuw i8, ptr %5, i64 84
  store i32 %33, ptr %34, align 4, !tbaa !229
  %35 = shl nsw i32 %33, 3
  %36 = lshr i32 %.0, 1
  %37 = add nsw i32 %35, %36
  %38 = sdiv i32 %37, %.0
  store i32 %38, ptr %32, align 4, !tbaa !231
  br label %39

39:                                               ; preds = %22, %12, %.thread, %17
  %.024 = phi i32 [ 0, %.thread ], [ -1094995529, %17 ], [ %14, %12 ], [ %26, %22 ]
  ret i32 %.024
}